target datalayout = "e-m:e-p270:32:32-p271:32:32-p272:64:64-i64:64-i128:128-f80:128-n8:16:32:64-S128"
target triple = "x86_64-pc-linux-gnu"

%struct.AVFilterPad = type { ptr, i32, i32, %union.anon, ptr, ptr, ptr }
%union.anon = type { ptr }
%struct.AVFilterContext = type { ptr, ptr, ptr, ptr, ptr, i32, ptr, ptr, i32, ptr, ptr, i32, i32, ptr, ptr, ptr, ptr, i32, ptr, i32, i32 }
%struct.LimitDiffContext = type { ptr, float, float, i32, i32, i32, i32, [4 x i32], [4 x i32], [4 x i32], i32, i32, %struct.FFFrameSync, ptr }
%struct.FFFrameSync = type { ptr, ptr, i32, %struct.AVRational, i64, ptr, ptr, i32, i32, i8, i8, ptr, i32, i32, i32, i32 }
%struct.AVRational = type { i32, i32 }
%struct.AVFilterLink = type { ptr, ptr, ptr, ptr, i32, i32, i32, i32, %struct.AVRational, i32, i32, i32, %struct.AVChannelLayout, %struct.AVRational, ptr, i32, %struct.AVFilterFormatsConfig, %struct.AVFilterFormatsConfig }
%struct.AVChannelLayout = type { i32, i32, %union.anon.1, ptr }
%union.anon.1 = type { i64 }
%struct.AVFilterFormatsConfig = type { ptr, ptr, ptr, ptr, ptr }
%struct.FilterLink = type { %struct.AVFilterLink, ptr, i64, i64, i32, i32, i64, i64, i64, i64, %struct.AVRational, ptr }
%struct.FFFrameSyncIn = type { i32, i32, %struct.AVRational, ptr, ptr, i64, i64, i8, i8, i32, i32 }

@.str.3 = private unnamed_addr constant [116 x i8] c"First input link %s parameters (size %dx%d) do not match the corresponding second input link %s parameters (%dx%d)\0A\00", align 1
@.str.4 = private unnamed_addr constant [115 x i8] c"First input link %s parameters (size %dx%d) do not match the corresponding third input link %s parameters (%dx%d)\0A\00", align 1

; Function Attrs: inlinehint nounwind uwtable
define internal ptr @ff_filter_link(ptr noundef %0) #4 {
  %2 = alloca ptr, align 8
  store ptr %0, ptr %2, align 8, !tbaa !35
  %3 = load ptr, ptr %2, align 8, !tbaa !35
  ret ptr %3
}

; Function Attrs: nounwind uwtable
define internal i32 @config_output(ptr noundef %0) #2 {
  %2 = alloca i32, align 4
  %3 = alloca ptr, align 8
  %4 = alloca ptr, align 8
  %5 = alloca ptr, align 8
  %6 = alloca ptr, align 8
  %7 = alloca ptr, align 8
  %8 = alloca ptr, align 8
  %9 = alloca ptr, align 8
  %10 = alloca ptr, align 8
  %11 = alloca i32, align 4
  %12 = alloca i32, align 4
  %13 = alloca ptr, align 8
  store ptr %0, ptr %3, align 8, !tbaa !35
  call void @llvm.lifetime.start.p0(i64 8, ptr %4) #10
  %14 = load ptr, ptr %3, align 8, !tbaa !35
  %15 = getelementptr inbounds nuw %struct.AVFilterLink, ptr %14, i32 0, i32 0
  %16 = load ptr, ptr %15, align 8, !tbaa !37
  store ptr %16, ptr %4, align 8, !tbaa !4
  call void @llvm.lifetime.start.p0(i64 8, ptr %5) #10
  %17 = load ptr, ptr %4, align 8, !tbaa !4
  %18 = getelementptr inbounds nuw %struct.AVFilterContext, ptr %17, i32 0, i32 9
  %19 = load ptr, ptr %18, align 8, !tbaa !9
  store ptr %19, ptr %5, align 8, !tbaa !22
  call void @llvm.lifetime.start.p0(i64 8, ptr %6) #10
  %20 = load ptr, ptr %4, align 8, !tbaa !4
  %21 = getelementptr inbounds nuw %struct.AVFilterContext, ptr %20, i32 0, i32 4
  %22 = load ptr, ptr %21, align 8, !tbaa !44
  %23 = getelementptr inbounds ptr, ptr %22, i64 0
  %24 = load ptr, ptr %23, align 8, !tbaa !35
  store ptr %24, ptr %6, align 8, !tbaa !35
  call void @llvm.lifetime.start.p0(i64 8, ptr %7) #10
  %25 = load ptr, ptr %4, align 8, !tbaa !4
  %26 = getelementptr inbounds nuw %struct.AVFilterContext, ptr %25, i32 0, i32 4
  %27 = load ptr, ptr %26, align 8, !tbaa !44
  %28 = getelementptr inbounds ptr, ptr %27, i64 1
  %29 = load ptr, ptr %28, align 8, !tbaa !35
  store ptr %29, ptr %7, align 8, !tbaa !35
  call void @llvm.lifetime.start.p0(i64 8, ptr %8) #10
  %30 = load ptr, ptr %6, align 8, !tbaa !35
  %31 = call ptr @ff_filter_link(ptr noundef %30)
  store ptr %31, ptr %8, align 8, !tbaa !45
  call void @llvm.lifetime.start.p0(i64 8, ptr %9) #10
  %32 = load ptr, ptr %3, align 8, !tbaa !35
  %33 = call ptr @ff_filter_link(ptr noundef %32)
  store ptr %33, ptr %9, align 8, !tbaa !45
  call void @llvm.lifetime.start.p0(i64 8, ptr %10) #10
  call void @llvm.lifetime.start.p0(i64 4, ptr %11) #10
  %34 = load ptr, ptr %6, align 8, !tbaa !35
  %35 = getelementptr inbounds nuw %struct.AVFilterLink, ptr %34, i32 0, i32 6
  %36 = load i32, ptr %35, align 8, !tbaa !47
  %37 = load ptr, ptr %7, align 8, !tbaa !35
  %38 = getelementptr inbounds nuw %struct.AVFilterLink, ptr %37, i32 0, i32 6
  %39 = load i32, ptr %38, align 8, !tbaa !47
  %40 = icmp ne i32 %36, %39
  br i1 %40, label %49, label %41

41:                                               ; preds = %1
  %42 = load ptr, ptr %6, align 8, !tbaa !35
  %43 = getelementptr inbounds nuw %struct.AVFilterLink, ptr %42, i32 0, i32 7
  %44 = load i32, ptr %43, align 4, !tbaa !48
  %45 = load ptr, ptr %7, align 8, !tbaa !35
  %46 = getelementptr inbounds nuw %struct.AVFilterLink, ptr %45, i32 0, i32 7
  %47 = load i32, ptr %46, align 4, !tbaa !48
  %48 = icmp ne i32 %44, %47
  br i1 %48, label %49, label %75

49:                                               ; preds = %41, %1
  %50 = load ptr, ptr %4, align 8, !tbaa !4
  %51 = load ptr, ptr %4, align 8, !tbaa !4
  %52 = getelementptr inbounds nuw %struct.AVFilterContext, ptr %51, i32 0, i32 3
  %53 = load ptr, ptr %52, align 8, !tbaa !49
  %54 = getelementptr inbounds %struct.AVFilterPad, ptr %53, i64 0
  %55 = getelementptr inbounds nuw %struct.AVFilterPad, ptr %54, i32 0, i32 0
  %56 = load ptr, ptr %55, align 8, !tbaa !25
  %57 = load ptr, ptr %6, align 8, !tbaa !35
  %58 = getelementptr inbounds nuw %struct.AVFilterLink, ptr %57, i32 0, i32 6
  %59 = load i32, ptr %58, align 8, !tbaa !47
  %60 = load ptr, ptr %6, align 8, !tbaa !35
  %61 = getelementptr inbounds nuw %struct.AVFilterLink, ptr %60, i32 0, i32 7
  %62 = load i32, ptr %61, align 4, !tbaa !48
  %63 = load ptr, ptr %4, align 8, !tbaa !4
  %64 = getelementptr inbounds nuw %struct.AVFilterContext, ptr %63, i32 0, i32 3
  %65 = load ptr, ptr %64, align 8, !tbaa !49
  %66 = getelementptr inbounds %struct.AVFilterPad, ptr %65, i64 1
  %67 = getelementptr inbounds nuw %struct.AVFilterPad, ptr %66, i32 0, i32 0
  %68 = load ptr, ptr %67, align 8, !tbaa !25
  %69 = load ptr, ptr %7, align 8, !tbaa !35
  %70 = getelementptr inbounds nuw %struct.AVFilterLink, ptr %69, i32 0, i32 6
  %71 = load i32, ptr %70, align 8, !tbaa !47
  %72 = load ptr, ptr %7, align 8, !tbaa !35
  %73 = getelementptr inbounds nuw %struct.AVFilterLink, ptr %72, i32 0, i32 7
  %74 = load i32, ptr %73, align 4, !tbaa !48
  call void (ptr, i32, ptr, ...) @av_log(ptr noundef %50, i32 noundef 16, ptr noundef @.str.3, ptr noundef %56, i32 noundef %59, i32 noundef %62, ptr noundef %68, i32 noundef %71, i32 noundef %74)
  store i32 -22, ptr %2, align 4
  store i32 1, ptr %12, align 4
  br label %244

75:                                               ; preds = %41
  %76 = load ptr, ptr %5, align 8, !tbaa !22
  %77 = getelementptr inbounds nuw %struct.LimitDiffContext, ptr %76, i32 0, i32 3
  %78 = load i32, ptr %77, align 8, !tbaa !28
  %79 = icmp ne i32 %78, 0
  br i1 %79, label %80, label %131

80:                                               ; preds = %75
  call void @llvm.lifetime.start.p0(i64 8, ptr %13) #10
  %81 = load ptr, ptr %4, align 8, !tbaa !4
  %82 = getelementptr inbounds nuw %struct.AVFilterContext, ptr %81, i32 0, i32 4
  %83 = load ptr, ptr %82, align 8, !tbaa !44
  %84 = getelementptr inbounds ptr, ptr %83, i64 2
  %85 = load ptr, ptr %84, align 8, !tbaa !35
  store ptr %85, ptr %13, align 8, !tbaa !35
  %86 = load ptr, ptr %6, align 8, !tbaa !35
  %87 = getelementptr inbounds nuw %struct.AVFilterLink, ptr %86, i32 0, i32 6
  %88 = load i32, ptr %87, align 8, !tbaa !47
  %89 = load ptr, ptr %13, align 8, !tbaa !35
  %90 = getelementptr inbounds nuw %struct.AVFilterLink, ptr %89, i32 0, i32 6
  %91 = load i32, ptr %90, align 8, !tbaa !47
  %92 = icmp ne i32 %88, %91
  br i1 %92, label %101, label %93

93:                                               ; preds = %80
  %94 = load ptr, ptr %6, align 8, !tbaa !35
  %95 = getelementptr inbounds nuw %struct.AVFilterLink, ptr %94, i32 0, i32 7
  %96 = load i32, ptr %95, align 4, !tbaa !48
  %97 = load ptr, ptr %13, align 8, !tbaa !35
  %98 = getelementptr inbounds nuw %struct.AVFilterLink, ptr %97, i32 0, i32 7
  %99 = load i32, ptr %98, align 4, !tbaa !48
  %100 = icmp ne i32 %96, %99
  br i1 %100, label %101, label %127

101:                                              ; preds = %93, %80
  %102 = load ptr, ptr %4, align 8, !tbaa !4
  %103 = load ptr, ptr %4, align 8, !tbaa !4
  %104 = getelementptr inbounds nuw %struct.AVFilterContext, ptr %103, i32 0, i32 3
  %105 = load ptr, ptr %104, align 8, !tbaa !49
  %106 = getelementptr inbounds %struct.AVFilterPad, ptr %105, i64 0
  %107 = getelementptr inbounds nuw %struct.AVFilterPad, ptr %106, i32 0, i32 0
  %108 = load ptr, ptr %107, align 8, !tbaa !25
  %109 = load ptr, ptr %6, align 8, !tbaa !35
  %110 = getelementptr inbounds nuw %struct.AVFilterLink, ptr %109, i32 0, i32 6
  %111 = load i32, ptr %110, align 8, !tbaa !47
  %112 = load ptr, ptr %6, align 8, !tbaa !35
  %113 = getelementptr inbounds nuw %struct.AVFilterLink, ptr %112, i32 0, i32 7
  %114 = load i32, ptr %113, align 4, !tbaa !48
  %115 = load ptr, ptr %4, align 8, !tbaa !4
  %116 = getelementptr inbounds nuw %struct.AVFilterContext, ptr %115, i32 0, i32 3
  %117 = load ptr, ptr %116, align 8, !tbaa !49
  %118 = getelementptr inbounds %struct.AVFilterPad, ptr %117, i64 1
  %119 = getelementptr inbounds nuw %struct.AVFilterPad, ptr %118, i32 0, i32 0
  %120 = load ptr, ptr %119, align 8, !tbaa !25
  %121 = load ptr, ptr %13, align 8, !tbaa !35
  %122 = getelementptr inbounds nuw %struct.AVFilterLink, ptr %121, i32 0, i32 6
  %123 = load i32, ptr %122, align 8, !tbaa !47
  %124 = load ptr, ptr %13, align 8, !tbaa !35
  %125 = getelementptr inbounds nuw %struct.AVFilterLink, ptr %124, i32 0, i32 7
  %126 = load i32, ptr %125, align 4, !tbaa !48
  call void (ptr, i32, ptr, ...) @av_log(ptr noundef %102, i32 noundef 16, ptr noundef @.str.4, ptr noundef %108, i32 noundef %111, i32 noundef %114, ptr noundef %120, i32 noundef %123, i32 noundef %126)
  store i32 -22, ptr %2, align 4
  store i32 1, ptr %12, align 4
  br label %128

127:                                              ; preds = %93
  store i32 0, ptr %12, align 4
  br label %128

128:                                              ; preds = %127, %101
  call void @llvm.lifetime.end.p0(i64 8, ptr %13) #10
  %129 = load i32, ptr %12, align 4
  switch i32 %129, label %244 [
    i32 0, label %130
  ]

130:                                              ; preds = %128
  br label %131

131:                                              ; preds = %130, %75
  %132 = load ptr, ptr %6, align 8, !tbaa !35
  %133 = getelementptr inbounds nuw %struct.AVFilterLink, ptr %132, i32 0, i32 6
  %134 = load i32, ptr %133, align 8, !tbaa !47
  %135 = load ptr, ptr %3, align 8, !tbaa !35
  %136 = getelementptr inbounds nuw %struct.AVFilterLink, ptr %135, i32 0, i32 6
  store i32 %134, ptr %136, align 8, !tbaa !47
  %137 = load ptr, ptr %6, align 8, !tbaa !35
  %138 = getelementptr inbounds nuw %struct.AVFilterLink, ptr %137, i32 0, i32 7
  %139 = load i32, ptr %138, align 4, !tbaa !48
  %140 = load ptr, ptr %3, align 8, !tbaa !35
  %141 = getelementptr inbounds nuw %struct.AVFilterLink, ptr %140, i32 0, i32 7
  store i32 %139, ptr %141, align 4, !tbaa !48
  %142 = load ptr, ptr %3, align 8, !tbaa !35
  %143 = getelementptr inbounds nuw %struct.AVFilterLink, ptr %142, i32 0, i32 8
  %144 = load ptr, ptr %6, align 8, !tbaa !35
  %145 = getelementptr inbounds nuw %struct.AVFilterLink, ptr %144, i32 0, i32 8
  call void @llvm.memcpy.p0.p0.i64(ptr align 8 %143, ptr align 8 %145, i64 8, i1 false), !tbaa.struct !50
  %146 = load ptr, ptr %9, align 8, !tbaa !45
  %147 = getelementptr inbounds nuw %struct.FilterLink, ptr %146, i32 0, i32 10
  %148 = load ptr, ptr %8, align 8, !tbaa !45
  %149 = getelementptr inbounds nuw %struct.FilterLink, ptr %148, i32 0, i32 10
  call void @llvm.memcpy.p0.p0.i64(ptr align 8 %147, ptr align 8 %149, i64 8, i1 false), !tbaa.struct !50
  %150 = load ptr, ptr %5, align 8, !tbaa !22
  %151 = getelementptr inbounds nuw %struct.LimitDiffContext, ptr %150, i32 0, i32 12
  %152 = load ptr, ptr %4, align 8, !tbaa !4
  %153 = load ptr, ptr %5, align 8, !tbaa !22
  %154 = getelementptr inbounds nuw %struct.LimitDiffContext, ptr %153, i32 0, i32 3
  %155 = load i32, ptr %154, align 8, !tbaa !28
  %156 = icmp ne i32 %155, 0
  %157 = xor i1 %156, true
  %158 = xor i1 %157, true
  %159 = zext i1 %158 to i32
  %160 = add nsw i32 2, %159
  %161 = call i32 @ff_framesync_init(ptr noundef %151, ptr noundef %152, i32 noundef %160)
  store i32 %161, ptr %11, align 4, !tbaa !24
  %162 = icmp slt i32 %161, 0
  br i1 %162, label %163, label %165

163:                                              ; preds = %131
  %164 = load i32, ptr %11, align 4, !tbaa !24
  store i32 %164, ptr %2, align 4
  store i32 1, ptr %12, align 4
  br label %244

165:                                              ; preds = %131
  %166 = load ptr, ptr %5, align 8, !tbaa !22
  %167 = getelementptr inbounds nuw %struct.LimitDiffContext, ptr %166, i32 0, i32 12
  %168 = getelementptr inbounds nuw %struct.FFFrameSync, ptr %167, i32 0, i32 11
  %169 = load ptr, ptr %168, align 8, !tbaa !51
  store ptr %169, ptr %10, align 8, !tbaa !52
  %170 = load ptr, ptr %10, align 8, !tbaa !52
  %171 = getelementptr inbounds %struct.FFFrameSyncIn, ptr %170, i64 0
  %172 = getelementptr inbounds nuw %struct.FFFrameSyncIn, ptr %171, i32 0, i32 2
  %173 = load ptr, ptr %6, align 8, !tbaa !35
  %174 = getelementptr inbounds nuw %struct.AVFilterLink, ptr %173, i32 0, i32 13
  call void @llvm.memcpy.p0.p0.i64(ptr align 8 %172, ptr align 8 %174, i64 8, i1 false), !tbaa.struct !50
  %175 = load ptr, ptr %10, align 8, !tbaa !52
  %176 = getelementptr inbounds %struct.FFFrameSyncIn, ptr %175, i64 1
  %177 = getelementptr inbounds nuw %struct.FFFrameSyncIn, ptr %176, i32 0, i32 2
  %178 = load ptr, ptr %7, align 8, !tbaa !35
  %179 = getelementptr inbounds nuw %struct.AVFilterLink, ptr %178, i32 0, i32 13
  call void @llvm.memcpy.p0.p0.i64(ptr align 8 %177, ptr align 8 %179, i64 8, i1 false), !tbaa.struct !50
  %180 = load ptr, ptr %5, align 8, !tbaa !22
  %181 = getelementptr inbounds nuw %struct.LimitDiffContext, ptr %180, i32 0, i32 3
  %182 = load i32, ptr %181, align 8, !tbaa !28
  %183 = icmp ne i32 %182, 0
  br i1 %183, label %184, label %194

184:                                              ; preds = %165
  %185 = load ptr, ptr %10, align 8, !tbaa !52
  %186 = getelementptr inbounds %struct.FFFrameSyncIn, ptr %185, i64 2
  %187 = getelementptr inbounds nuw %struct.FFFrameSyncIn, ptr %186, i32 0, i32 2
  %188 = load ptr, ptr %4, align 8, !tbaa !4
  %189 = getelementptr inbounds nuw %struct.AVFilterContext, ptr %188, i32 0, i32 4
  %190 = load ptr, ptr %189, align 8, !tbaa !44
  %191 = getelementptr inbounds ptr, ptr %190, i64 2
  %192 = load ptr, ptr %191, align 8, !tbaa !35
  %193 = getelementptr inbounds nuw %struct.AVFilterLink, ptr %192, i32 0, i32 13
  call void @llvm.memcpy.p0.p0.i64(ptr align 8 %187, ptr align 8 %193, i64 8, i1 false), !tbaa.struct !50
  br label %194

194:                                              ; preds = %184, %165
  %195 = load ptr, ptr %10, align 8, !tbaa !52
  %196 = getelementptr inbounds %struct.FFFrameSyncIn, ptr %195, i64 0
  %197 = getelementptr inbounds nuw %struct.FFFrameSyncIn, ptr %196, i32 0, i32 9
  store i32 1, ptr %197, align 4, !tbaa !53
  %198 = load ptr, ptr %10, align 8, !tbaa !52
  %199 = getelementptr inbounds %struct.FFFrameSyncIn, ptr %198, i64 0
  %200 = getelementptr inbounds nuw %struct.FFFrameSyncIn, ptr %199, i32 0, i32 0
  store i32 0, ptr %200, align 8, !tbaa !56
  %201 = load ptr, ptr %10, align 8, !tbaa !52
  %202 = getelementptr inbounds %struct.FFFrameSyncIn, ptr %201, i64 0
  %203 = getelementptr inbounds nuw %struct.FFFrameSyncIn, ptr %202, i32 0, i32 1
  store i32 2, ptr %203, align 4, !tbaa !57
  %204 = load ptr, ptr %10, align 8, !tbaa !52
  %205 = getelementptr inbounds %struct.FFFrameSyncIn, ptr %204, i64 1
  %206 = getelementptr inbounds nuw %struct.FFFrameSyncIn, ptr %205, i32 0, i32 9
  store i32 1, ptr %206, align 4, !tbaa !53
  %207 = load ptr, ptr %10, align 8, !tbaa !52
  %208 = getelementptr inbounds %struct.FFFrameSyncIn, ptr %207, i64 1
  %209 = getelementptr inbounds nuw %struct.FFFrameSyncIn, ptr %208, i32 0, i32 0
  store i32 0, ptr %209, align 8, !tbaa !56
  %210 = load ptr, ptr %10, align 8, !tbaa !52
  %211 = getelementptr inbounds %struct.FFFrameSyncIn, ptr %210, i64 1
  %212 = getelementptr inbounds nuw %struct.FFFrameSyncIn, ptr %211, i32 0, i32 1
  store i32 2, ptr %212, align 4, !tbaa !57
  %213 = load ptr, ptr %5, align 8, !tbaa !22
  %214 = getelementptr inbounds nuw %struct.LimitDiffContext, ptr %213, i32 0, i32 3
  %215 = load i32, ptr %214, align 8, !tbaa !28
  %216 = icmp ne i32 %215, 0
  br i1 %216, label %217, label %227

217:                                              ; preds = %194
  %218 = load ptr, ptr %10, align 8, !tbaa !52
  %219 = getelementptr inbounds %struct.FFFrameSyncIn, ptr %218, i64 2
  %220 = getelementptr inbounds nuw %struct.FFFrameSyncIn, ptr %219, i32 0, i32 9
  store i32 1, ptr %220, align 4, !tbaa !53
  %221 = load ptr, ptr %10, align 8, !tbaa !52
  %222 = getelementptr inbounds %struct.FFFrameSyncIn, ptr %221, i64 2
  %223 = getelementptr inbounds nuw %struct.FFFrameSyncIn, ptr %222, i32 0, i32 0
  store i32 0, ptr %223, align 8, !tbaa !56
  %224 = load ptr, ptr %10, align 8, !tbaa !52
  %225 = getelementptr inbounds %struct.FFFrameSyncIn, ptr %224, i64 2
  %226 = getelementptr inbounds nuw %struct.FFFrameSyncIn, ptr %225, i32 0, i32 1
  store i32 2, ptr %226, align 4, !tbaa !57
  br label %227

227:                                              ; preds = %217, %194
  %228 = load ptr, ptr %5, align 8, !tbaa !22
  %229 = load ptr, ptr %5, align 8, !tbaa !22
  %230 = getelementptr inbounds nuw %struct.LimitDiffContext, ptr %229, i32 0, i32 12
  %231 = getelementptr inbounds nuw %struct.FFFrameSync, ptr %230, i32 0, i32 6
  store ptr %228, ptr %231, align 8, !tbaa !58
  %232 = load ptr, ptr %5, align 8, !tbaa !22
  %233 = getelementptr inbounds nuw %struct.LimitDiffContext, ptr %232, i32 0, i32 12
  %234 = getelementptr inbounds nuw %struct.FFFrameSync, ptr %233, i32 0, i32 5
  store ptr @process_frame, ptr %234, align 8, !tbaa !59
  %235 = load ptr, ptr %5, align 8, !tbaa !22
  %236 = getelementptr inbounds nuw %struct.LimitDiffContext, ptr %235, i32 0, i32 12
  %237 = call i32 @ff_framesync_configure(ptr noundef %236)
  store i32 %237, ptr %11, align 4, !tbaa !24
  %238 = load ptr, ptr %3, align 8, !tbaa !35
  %239 = getelementptr inbounds nuw %struct.AVFilterLink, ptr %238, i32 0, i32 13
  %240 = load ptr, ptr %5, align 8, !tbaa !22
  %241 = getelementptr inbounds nuw %struct.LimitDiffContext, ptr %240, i32 0, i32 12
  %242 = getelementptr inbounds nuw %struct.FFFrameSync, ptr %241, i32 0, i32 3
  call void @llvm.memcpy.p0.p0.i64(ptr align 8 %239, ptr align 4 %242, i64 8, i1 false), !tbaa.struct !50
  %243 = load i32, ptr %11, align 4, !tbaa !24
  store i32 %243, ptr %2, align 4
  store i32 1, ptr %12, align 4
  br label %244

244:                                              ; preds = %227, %163, %128, %49
  call void @llvm.lifetime.end.p0(i64 4, ptr %11) #10
  call void @llvm.lifetime.end.p0(i64 8, ptr %10) #10
  call void @llvm.lifetime.end.p0(i64 8, ptr %9) #10
  call void @llvm.lifetime.end.p0(i64 8, ptr %8) #10
  call void @llvm.lifetime.end.p0(i64 8, ptr %7) #10
  call void @llvm.lifetime.end.p0(i64 8, ptr %6) #10
  call void @llvm.lifetime.end.p0(i64 8, ptr %5) #10
  call void @llvm.lifetime.end.p0(i64 8, ptr %4) #10
  %245 = load i32, ptr %2, align 4
  ret i32 %245
}