; Function Attrs: nounwind uwtable
define internal i32 @config_output(ptr noundef captures(none) %0) #2 {
  %2 = load ptr, ptr %0, align 8, !tbaa !31
  %3 = getelementptr inbounds nuw i8, ptr %2, i64 72
  %4 = load ptr, ptr %3, align 8, !tbaa !4
  %5 = getelementptr inbounds nuw i8, ptr %2, i64 32
  %6 = load ptr, ptr %5, align 8, !tbaa !38
  %7 = load ptr, ptr %6, align 8, !tbaa !39
  %8 = getelementptr inbounds nuw i8, ptr %6, i64 8
  %9 = load ptr, ptr %8, align 8, !tbaa !39
  %10 = getelementptr inbounds nuw i8, ptr %7, i64 40
  %11 = load i32, ptr %10, align 8, !tbaa !41
  %12 = getelementptr inbounds nuw i8, ptr %9, i64 40
  %13 = load i32, ptr %12, align 8, !tbaa !41
  %.not = icmp eq i32 %11, %13
  %14 = getelementptr inbounds nuw i8, ptr %7, i64 44
  %15 = load i32, ptr %14, align 4, !tbaa !42
  %16 = getelementptr inbounds nuw i8, ptr %9, i64 44
  %17 = load i32, ptr %16, align 4, !tbaa !42
  %.not72 = icmp eq i32 %15, %17
  %or.cond = select i1 %.not, i1 %.not72, i1 false
  br i1 %or.cond, label %23, label %._crit_edge

._crit_edge:                                      ; preds = %1
  %18 = getelementptr inbounds nuw i8, ptr %2, i64 24
  %19 = load ptr, ptr %18, align 8, !tbaa !43
  %20 = load ptr, ptr %19, align 8, !tbaa !20
  %21 = getelementptr inbounds nuw i8, ptr %19, i64 48
  %22 = load ptr, ptr %21, align 8, !tbaa !20
  tail call void (ptr, i32, ptr, ...) @av_log(ptr noundef nonnull %2, i32 noundef 16, ptr noundef nonnull @.str.3, ptr noundef %20, i32 noundef %11, i32 noundef %15, ptr noundef %22, i32 noundef %13, i32 noundef %17) #9
  br label %89

23:                                               ; preds = %1
  %24 = getelementptr inbounds nuw i8, ptr %4, i64 16
  %25 = load i32, ptr %24, align 8, !tbaa !23
  %.not73 = icmp eq i32 %25, 0
  br i1 %.not73, label %38, label %26

26:                                               ; preds = %23
  %27 = getelementptr inbounds nuw i8, ptr %6, i64 16
  %28 = load ptr, ptr %27, align 8, !tbaa !39
  %29 = getelementptr inbounds nuw i8, ptr %28, i64 40
  %30 = load i32, ptr %29, align 8, !tbaa !41
  %.not74 = icmp eq i32 %11, %30
  %31 = getelementptr inbounds nuw i8, ptr %28, i64 44
  %32 = load i32, ptr %31, align 4, !tbaa !42
  %.not75 = icmp eq i32 %15, %32
  %or.cond85 = select i1 %.not74, i1 %.not75, i1 false
  br i1 %or.cond85, label %38, label %.critedge

.critedge:                                        ; preds = %26
  %33 = getelementptr inbounds nuw i8, ptr %2, i64 24
  %34 = load ptr, ptr %33, align 8, !tbaa !43
  %35 = load ptr, ptr %34, align 8, !tbaa !20
  %36 = getelementptr inbounds nuw i8, ptr %34, i64 48
  %37 = load ptr, ptr %36, align 8, !tbaa !20
  tail call void (ptr, i32, ptr, ...) @av_log(ptr noundef nonnull %2, i32 noundef 16, ptr noundef nonnull @.str.4, ptr noundef %35, i32 noundef %11, i32 noundef %15, ptr noundef %37, i32 noundef %30, i32 noundef %32) #9
  br label %89

38:                                               ; preds = %26, %23
  %39 = getelementptr inbounds nuw i8, ptr %0, i64 40
  store i32 %11, ptr %39, align 8, !tbaa !41
  %40 = getelementptr inbounds nuw i8, ptr %0, i64 44
  store i32 %15, ptr %40, align 4, !tbaa !42
  %41 = getelementptr inbounds nuw i8, ptr %0, i64 48
  %42 = getelementptr inbounds nuw i8, ptr %7, i64 48
  %43 = load i64, ptr %42, align 8
  store i64 %43, ptr %41, align 8
  %44 = getelementptr inbounds nuw i8, ptr %0, i64 264
  %45 = getelementptr inbounds nuw i8, ptr %7, i64 264
  %46 = load i64, ptr %45, align 8
  store i64 %46, ptr %44, align 8
  %47 = getelementptr inbounds nuw i8, ptr %4, i64 88
  %48 = load i32, ptr %24, align 8, !tbaa !23
  %.not76 = icmp eq i32 %48, 0
  %49 = select i1 %.not76, i32 2, i32 3
  %50 = tail call i32 @ff_framesync_init(ptr noundef nonnull %47, ptr noundef nonnull %2, i32 noundef %49) #9
  %51 = icmp slt i32 %50, 0
  br i1 %51, label %89, label %52

52:                                               ; preds = %38
  %53 = getelementptr inbounds nuw i8, ptr %4, i64 160
  %54 = load ptr, ptr %53, align 8, !tbaa !44
  %55 = getelementptr inbounds nuw i8, ptr %54, i64 8
  %56 = getelementptr inbounds nuw i8, ptr %7, i64 96
  %57 = load i64, ptr %56, align 8
  store i64 %57, ptr %55, align 8
  %58 = getelementptr inbounds nuw i8, ptr %54, i64 64
  %59 = getelementptr inbounds nuw i8, ptr %54, i64 72
  %60 = getelementptr inbounds nuw i8, ptr %9, i64 96
  %61 = load i64, ptr %60, align 8
  store i64 %61, ptr %59, align 8
  %62 = load i32, ptr %24, align 8, !tbaa !23
  %.not77 = icmp eq i32 %62, 0
  br i1 %.not77, label %.thread, label %66

.thread:                                          ; preds = %52
  %63 = getelementptr inbounds nuw i8, ptr %54, i64 52
  store i32 1, ptr %63, align 4, !tbaa !45
  store i32 0, ptr %54, align 8, !tbaa !48
  %64 = getelementptr inbounds nuw i8, ptr %54, i64 4
  store i32 2, ptr %64, align 4, !tbaa !49
  %65 = getelementptr inbounds nuw i8, ptr %54, i64 116
  store i32 1, ptr %65, align 4, !tbaa !45
  store i32 0, ptr %58, align 8, !tbaa !48
  br label %.sink.split

66:                                               ; preds = %52
  %67 = getelementptr inbounds nuw i8, ptr %54, i64 136
  %68 = load ptr, ptr %5, align 8, !tbaa !38
  %69 = getelementptr inbounds nuw i8, ptr %68, i64 16
  %70 = load ptr, ptr %69, align 8, !tbaa !39
  %71 = getelementptr inbounds nuw i8, ptr %70, i64 96
  %72 = load i64, ptr %71, align 8
  store i64 %72, ptr %67, align 8
  %.pre83 = load i32, ptr %24, align 8, !tbaa !23
  %73 = icmp eq i32 %.pre83, 0
  %74 = getelementptr inbounds nuw i8, ptr %54, i64 52
  store i32 1, ptr %74, align 4, !tbaa !45
  store i32 0, ptr %54, align 8, !tbaa !48
  %75 = getelementptr inbounds nuw i8, ptr %54, i64 4
  store i32 2, ptr %75, align 4, !tbaa !49
  %76 = getelementptr inbounds nuw i8, ptr %54, i64 116
  store i32 1, ptr %76, align 4, !tbaa !45
  store i32 0, ptr %58, align 8, !tbaa !48
  %77 = getelementptr inbounds nuw i8, ptr %54, i64 68
  store i32 2, ptr %77, align 4, !tbaa !49
  br i1 %73, label %82, label %78

78:                                               ; preds = %66
  %79 = getelementptr inbounds nuw i8, ptr %54, i64 128
  %80 = getelementptr inbounds nuw i8, ptr %54, i64 180
  store i32 1, ptr %80, align 4, !tbaa !45
  store i32 0, ptr %79, align 8, !tbaa !48
  br label %.sink.split

.sink.split:                                      ; preds = %78, %.thread
  %.sink86 = phi i64 [ 68, %.thread ], [ 132, %78 ]
  %81 = getelementptr inbounds nuw i8, ptr %54, i64 %.sink86
  store i32 2, ptr %81, align 4, !tbaa !49
  br label %82

82:                                               ; preds = %.sink.split, %66
  %83 = getelementptr inbounds nuw i8, ptr %4, i64 136
  store ptr %4, ptr %83, align 8, !tbaa !50
  %84 = getelementptr inbounds nuw i8, ptr %4, i64 128
  store ptr @process_frame, ptr %84, align 8, !tbaa !51
  %85 = tail call i32 @ff_framesync_configure(ptr noundef nonnull %47) #9
  %86 = getelementptr inbounds nuw i8, ptr %0, i64 96
  %87 = getelementptr inbounds nuw i8, ptr %4, i64 108
  %88 = load i64, ptr %87, align 4
  store i64 %88, ptr %86, align 8
  br label %89

89:                                               ; preds = %38, %.critedge, %82, %._crit_edge
  %.0 = phi i32 [ -22, %._crit_edge ], [ %85, %82 ], [ -22, %.critedge ], [ %50, %38 ]
  ret i32 %.0
}